target datalayout = "e-m:e-p270:32:32-p271:32:32-p272:64:64-i64:64-i128:128-f80:128-n8:16:32:64-S128"
target triple = "x86_64-pc-linux-gnu"

%struct.bp_creation_ts_t = type { %struct.bp_dtn_time_t, i64 }
%struct.bp_dtn_time_t = type { i64, %struct.nstime_t }
%struct.nstime_t = type { i64, i32 }
%struct.bp_eid_t = type { ptr, i64, %struct._address, ptr, ptr, ptr }
%struct._address = type { i32, i32, ptr, ptr }
%struct.bp_block_primary_t = type { ptr, i64, ptr, ptr, ptr, %struct.bp_creation_ts_t, ptr, ptr, i64, ptr, %struct.security_mark_t }
%struct.security_mark_t = type { ptr, ptr }

; Function Attrs: inlinehint nounwind null_pointer_is_valid sspstrong uwtable
define internal void @clear_address(ptr noundef %0) #4 {
  %2 = alloca ptr, align 8
  store ptr %0, ptr %2, align 8
  %3 = load ptr, ptr %2, align 8
  %4 = getelementptr inbounds nuw %struct._address, ptr %3, i32 0, i32 0
  store i32 0, ptr %4, align 8
  %5 = load ptr, ptr %2, align 8
  %6 = getelementptr inbounds nuw %struct._address, ptr %5, i32 0, i32 1
  store i32 0, ptr %6, align 4
  %7 = load ptr, ptr %2, align 8
  %8 = getelementptr inbounds nuw %struct._address, ptr %7, i32 0, i32 2
  store ptr null, ptr %8, align 8
  %9 = load ptr, ptr %2, align 8
  %10 = getelementptr inbounds nuw %struct._address, ptr %9, i32 0, i32 3
  store ptr null, ptr %10, align 8
  ret void
}

; Function Attrs: null_pointer_is_valid sspstrong uwtable
define ptr @bp_eid_new(ptr noundef %0) #2 {
  %2 = alloca ptr, align 8
  %3 = alloca ptr, align 8
  store ptr %0, ptr %2, align 8
  call void @llvm.lifetime.start.p0(i64 8, ptr %3) #18
  %4 = load ptr, ptr %2, align 8
  %5 = call noalias ptr @wmem_alloc0(ptr noundef %4, i64 noundef 64) #19
  store ptr %5, ptr %3, align 8
  %6 = load ptr, ptr %2, align 8
  %7 = load ptr, ptr %3, align 8
  %8 = getelementptr inbounds nuw %struct.bp_eid_t, ptr %7, i32 0, i32 0
  store ptr %6, ptr %8, align 8
  %9 = load ptr, ptr %3, align 8
  %10 = getelementptr inbounds nuw %struct.bp_eid_t, ptr %9, i32 0, i32 2
  call void @clear_address(ptr noundef %10)
  %11 = load ptr, ptr %3, align 8
  call void @llvm.lifetime.end.p0(i64 8, ptr %3) #18
  ret ptr %11
}

; Function Attrs: null_pointer_is_valid sspstrong uwtable
define ptr @bp_block_primary_new(ptr noundef %0) #2 {
  %2 = alloca ptr, align 8
  %3 = alloca ptr, align 8
  store ptr %0, ptr %2, align 8
  call void @llvm.lifetime.start.p0(i64 8, ptr %3) #18
  %4 = load ptr, ptr %2, align 8
  %5 = call noalias ptr @wmem_alloc0(ptr noundef %4, i64 noundef 120) #19
  store ptr %5, ptr %3, align 8
  %6 = load ptr, ptr %2, align 8
  %7 = call ptr @bp_eid_new(ptr noundef %6)
  %8 = load ptr, ptr %3, align 8
  %9 = getelementptr inbounds nuw %struct.bp_block_primary_t, ptr %8, i32 0, i32 2
  store ptr %7, ptr %9, align 8
  %10 = load ptr, ptr %2, align 8
  %11 = call ptr @bp_eid_new(ptr noundef %10)
  %12 = load ptr, ptr %3, align 8
  %13 = getelementptr inbounds nuw %struct.bp_block_primary_t, ptr %12, i32 0, i32 3
  store ptr %11, ptr %13, align 8
  %14 = load ptr, ptr %2, align 8
  %15 = call ptr @bp_eid_new(ptr noundef %14)
  %16 = load ptr, ptr %3, align 8
  %17 = getelementptr inbounds nuw %struct.bp_block_primary_t, ptr %16, i32 0, i32 4
  store ptr %15, ptr %17, align 8
  %18 = load ptr, ptr %3, align 8
  %19 = getelementptr inbounds nuw %struct.bp_block_primary_t, ptr %18, i32 0, i32 6
  store ptr null, ptr %19, align 8
  %20 = load ptr, ptr %3, align 8
  %21 = getelementptr inbounds nuw %struct.bp_block_primary_t, ptr %20, i32 0, i32 7
  store ptr null, ptr %21, align 8
  %22 = load ptr, ptr %2, align 8
  %23 = call noalias ptr @wmem_map_new(ptr noundef %22, ptr noundef @g_int64_hash, ptr noundef @g_int64_equal)
  %24 = load ptr, ptr %3, align 8
  %25 = getelementptr inbounds nuw %struct.bp_block_primary_t, ptr %24, i32 0, i32 10
  %26 = getelementptr inbounds nuw %struct.security_mark_t, ptr %25, i32 0, i32 0
  store ptr %23, ptr %26, align 8
  %27 = load ptr, ptr %2, align 8
  %28 = call noalias ptr @wmem_map_new(ptr noundef %27, ptr noundef @g_int64_hash, ptr noundef @g_int64_equal)
  %29 = load ptr, ptr %3, align 8
  %30 = getelementptr inbounds nuw %struct.bp_block_primary_t, ptr %29, i32 0, i32 10
  %31 = getelementptr inbounds nuw %struct.security_mark_t, ptr %30, i32 0, i32 1
  store ptr %28, ptr %31, align 8
  %32 = load ptr, ptr %3, align 8
  call void @llvm.lifetime.end.p0(i64 8, ptr %3) #18
  ret ptr %32
}