; Function Attrs: null_pointer_is_valid sspstrong uwtable
define noalias noundef ptr @bp_block_primary_new(ptr noundef %0) local_unnamed_addr #2 {
  %2 = tail call noalias dereferenceable_or_null(120) ptr @wmem_alloc0(ptr noundef %0, i64 noundef 120) #16
  %3 = tail call noalias noundef dereferenceable_or_null(64) ptr @wmem_alloc0(ptr noundef %0, i64 noundef 64) #16
  store ptr %0, ptr %3, align 8
  %4 = getelementptr inbounds nuw i8, ptr %3, i64 16
  tail call void @llvm.memset.p0.i64(ptr noundef nonnull align 8 dereferenceable(24) %4, i8 0, i64 24, i1 false)
  %5 = getelementptr inbounds nuw i8, ptr %2, i64 16
  store ptr %3, ptr %5, align 8
  %6 = tail call noalias noundef dereferenceable_or_null(64) ptr @wmem_alloc0(ptr noundef %0, i64 noundef 64) #16
  store ptr %0, ptr %6, align 8
  %7 = getelementptr inbounds nuw i8, ptr %6, i64 16
  tail call void @llvm.memset.p0.i64(ptr noundef nonnull align 8 dereferenceable(24) %7, i8 0, i64 24, i1 false)
  %8 = getelementptr inbounds nuw i8, ptr %2, i64 24
  store ptr %6, ptr %8, align 8
  %9 = tail call noalias noundef dereferenceable_or_null(64) ptr @wmem_alloc0(ptr noundef %0, i64 noundef 64) #16
  store ptr %0, ptr %9, align 8
  %10 = getelementptr inbounds nuw i8, ptr %9, i64 16
  tail call void @llvm.memset.p0.i64(ptr noundef nonnull align 8 dereferenceable(24) %10, i8 0, i64 24, i1 false)
  %11 = getelementptr inbounds nuw i8, ptr %2, i64 32
  store ptr %9, ptr %11, align 8
  %12 = getelementptr inbounds nuw i8, ptr %2, i64 72
  tail call void @llvm.memset.p0.i64(ptr noundef nonnull align 8 dereferenceable(16) %12, i8 0, i64 16, i1 false)
  %13 = tail call noalias ptr @wmem_map_new(ptr noundef %0, ptr noundef nonnull @g_int64_hash, ptr noundef nonnull @g_int64_equal)
  %14 = getelementptr inbounds nuw i8, ptr %2, i64 104
  store ptr %13, ptr %14, align 8
  %15 = tail call noalias ptr @wmem_map_new(ptr noundef %0, ptr noundef nonnull @g_int64_hash, ptr noundef nonnull @g_int64_equal)
  %16 = getelementptr inbounds nuw i8, ptr %2, i64 112
  store ptr %15, ptr %16, align 8
  ret ptr %2
}